target datalayout = "e-m:e-p270:32:32-p271:32:32-p272:64:64-i64:64-i128:128-f80:128-n8:16:32:64-S128"
target triple = "x86_64-pc-linux-gnu"

; Function Attrs: nounwind uwtable
define i32 @WebPInitDecBufferInternal(ptr noundef %0, i32 noundef %1) #0 {
  %3 = alloca i32, align 4
  %4 = alloca ptr, align 8
  %5 = alloca i32, align 4
  store ptr %0, ptr %4, align 8, !tbaa !7
  store i32 %1, ptr %5, align 4, !tbaa !3
  %6 = load i32, ptr %5, align 4, !tbaa !3
  %7 = ashr i32 %6, 8
  %8 = icmp ne i32 %7, 2
  br i1 %8, label %9, label %10

9:                                                ; preds = %2
  store i32 0, ptr %3, align 4
  br label %16

10:                                               ; preds = %2
  %11 = load ptr, ptr %4, align 8, !tbaa !7
  %12 = icmp eq ptr %11, null
  br i1 %12, label %13, label %14

13:                                               ; preds = %10
  store i32 0, ptr %3, align 4
  br label %16

14:                                               ; preds = %10
  %15 = load ptr, ptr %4, align 8, !tbaa !7
  call void @llvm.memset.p0.i64(ptr align 8 %15, i8 0, i64 120, i1 false)
  store i32 1, ptr %3, align 4
  br label %16

16:                                               ; preds = %14, %13, %9
  %17 = load i32, ptr %3, align 4
  ret i32 %17
}